target datalayout = "e-m:e-p270:32:32-p271:32:32-p272:64:64-i64:64-i128:128-f80:128-n8:16:32:64-S128"
target triple = "x86_64-pc-linux-gnu"

%struct.MPVEncContext = type { %struct.MpegEncContext, %struct.PutBitContext, i32, i32, ptr, i32, i32, i32, i32, i32, i32, i32, i32, ptr, ptr, %struct.FDCTDSPContext, %struct.MpegvideoEncDSPContext, %struct.PixblockDSPContext, %struct.MotionEstContext, i32, i32, ptr, ptr, ptr, ptr, ptr, ptr, [2 x [2 x [2 x ptr]]], [2 x ptr], [2 x [2 x ptr]], ptr, ptr, ptr, ptr, [3 x i64], i32, i32, i32, i32, i32, ptr, ptr, ptr, ptr, ptr, ptr, ptr, [12 x i32], ptr, ptr, ptr, ptr, ptr, ptr, ptr, ptr, [2 x i32], ptr, i32, i32, i32, i32, i32, i32, i32, i32, i32, i32, ptr, ptr, i32, i32, %struct.PutBitContext, %struct.PutBitContext, i32, i32, i32, i32, ptr, ptr, ptr, [2 x ptr], [2 x ptr], [2 x ptr], [2 x ptr], ptr, i32 }
%struct.MpegEncContext = type { ptr, i32, i32, i32, [12 x i32], i32, %struct.ScanTable, %struct.ScanTable, [64 x i8], [64 x i8], ptr, ptr, i32, i32, i32, i32, i32, i32, i32, i32, i32, i32, i32, i32, i32, i32, i32, i32, i32, i32, i32, i32, i64, i64, ptr, %struct.BufferPoolContext, i32, i32, %union.anon, i32, %struct.MPVWorkPicture, %struct.MPVWorkPicture, %struct.MPVWorkPicture, i32, [3 x i32], ptr, [3 x ptr], ptr, ptr, ptr, ptr, ptr, ptr, [3 x ptr], i32, ptr, ptr, ptr, ptr, %struct.ScratchpadContext, i32, i32, i32, i32, i32, i32, %struct.BlockDSPContext, %struct.H264ChromaContext, %struct.HpelDSPContext, %struct.IDCTDSPContext, %struct.QpelDSPContext, %struct.VideoDSPContext, %struct.H263DSPContext, ptr, [2 x [2 x ptr]], i32, i32, [2 x [4 x [2 x i32]]], [2 x [2 x i32]], [2 x [2 x [2 x i32]]], [2 x [64 x i16]], i32, i32, i32, i32, i32, [6 x i32], [6 x i32], [3 x ptr], ptr, [64 x i16], [64 x i16], [64 x i16], [64 x i16], i32, i32, %struct.GetBitContext, i32, i32, i32, i32, i32, i32, i32, i32, i32, i32, i32, i32, i32, i32, i32, i64, i64, i16, i16, i16, i16, i32, i32, i32, i32, i32, i32, i32, i32, i32, [3 x i32], i32, i32, i32, i32, i32, i32, %struct.GetBitContext, i32, [2 x [2 x i32]], i32, i32, i32, i32, i32, i32, i32, i32, i32, i32, i32, i32, i32, i32, [2 x i32], i32, i32, ptr, ptr, ptr, ptr, ptr, i32, i32, %struct.ERContext }
%struct.ScanTable = type { ptr, [64 x i8], [64 x i8] }
%struct.BufferPoolContext = type { ptr, ptr, ptr, ptr, ptr, i32, i32, i32 }
%union.anon = type { [32 x ptr] }
%struct.MPVWorkPicture = type { [3 x ptr], [3 x i64], ptr, ptr, [2 x ptr], ptr, ptr, [2 x ptr], i32 }
%struct.ScratchpadContext = type { ptr, ptr, %union.anon.0, i32 }
%union.anon.0 = type { ptr }
%struct.BlockDSPContext = type { ptr, ptr, [2 x ptr] }
%struct.H264ChromaContext = type { [4 x ptr], [4 x ptr] }
%struct.HpelDSPContext = type { [4 x [4 x ptr]], [4 x [4 x ptr]], [4 x [4 x ptr]], [4 x ptr] }
%struct.IDCTDSPContext = type { ptr, ptr, ptr, ptr, ptr, ptr, [64 x i8], i32, i32 }
%struct.QpelDSPContext = type { [2 x [16 x ptr]], [2 x [16 x ptr]], [2 x [16 x ptr]] }
%struct.VideoDSPContext = type { ptr, ptr }
%struct.H263DSPContext = type { ptr, ptr }
%struct.GetBitContext = type { ptr, ptr, i32, i32, i32 }
%struct.ERContext = type { ptr, ptr, i32, ptr, i32, i32, i32, i64, i64, i32, i32, ptr, ptr, [3 x ptr], ptr, ptr, [2 x [4 x [2 x i32]]], %struct.ERPicture, %struct.ERPicture, %struct.ERPicture, [2 x ptr], [2 x ptr], i16, i16, i32, i32, ptr, ptr }
%struct.ERPicture = type { ptr, ptr, ptr, [2 x ptr], [2 x ptr], ptr, i32 }
%struct.FDCTDSPContext = type { ptr, ptr }
%struct.MpegvideoEncDSPContext = type { ptr, ptr, ptr, ptr, [4 x ptr], ptr }
%struct.PixblockDSPContext = type { ptr, ptr, ptr, ptr }
%struct.MotionEstContext = type { ptr, i32, i32, [4 x [2 x i32]], [4 x [2 x i32]], ptr, ptr, i32, i32, i32, i32, i32, i32, i32, i32, i32, i32, i32, i32, i32, i32, i32, i32, [4 x [4 x ptr]], [4 x [4 x ptr]], i32, i32, i64, i64, i32, [6 x ptr], [6 x ptr], [6 x ptr], [6 x ptr], [2 x [4 x ptr]], ptr, ptr, ptr, ptr, ptr, ptr, ptr, ptr, [64 x i32], [64 x i32] }
%struct.PutBitContext = type { i32, i32, ptr, ptr, ptr }
%struct.MPVMainEncContext = type { %struct.MPVEncContext, i32, i32, i32, i32, i32, i32, [17 x ptr], [17 x ptr], i64, i64, i64, [18 x ptr], i32, i32, i32, i32, i32, float, i32, i32, i32, i32, ptr, i32, i32, i32, i32, ptr, ptr, i64, i64, i32, i32, i32, i32, i32, [5 x i32], i32, i32, %struct.RateControlContext, i32, i32, i64, i64, ptr, ptr, ptr }
%struct.RateControlContext = type { i32, ptr, double, [5 x %struct.Predictor], double, double, double, double, double, [5 x double], i64, i64, [5 x i64], [5 x i64], [5 x i64], [5 x i64], [5 x i32], i32, float, float, i32, float, float, ptr, ptr, ptr, ptr }
%struct.Predictor = type { double, double, double }

@ff_msmpeg4_encode_init.init_static_once = internal global i32 0, align 4

; Function Attrs: cold nounwind optsize uwtable
define void @ff_msmpeg4_encode_init(ptr noundef %0) #5 {
  %2 = alloca ptr, align 8
  %3 = alloca ptr, align 8
  store ptr %0, ptr %2, align 8, !tbaa !13
  call void @llvm.lifetime.start.p0(i64 8, ptr %3) #8
  %4 = load ptr, ptr %2, align 8, !tbaa !13
  %5 = getelementptr inbounds nuw %struct.MPVMainEncContext, ptr %4, i32 0, i32 0
  store ptr %5, ptr %3, align 8, !tbaa !11
  %6 = load ptr, ptr %3, align 8, !tbaa !11
  %7 = getelementptr inbounds nuw %struct.MPVEncContext, ptr %6, i32 0, i32 0
  call void @ff_msmpeg4_common_init(ptr noundef %7)
  %8 = load ptr, ptr %3, align 8, !tbaa !11
  %9 = getelementptr inbounds nuw %struct.MPVEncContext, ptr %8, i32 0, i32 0
  %10 = getelementptr inbounds nuw %struct.MpegEncContext, ptr %9, i32 0, i32 131
  %11 = load i32, ptr %10, align 4, !tbaa !74
  %12 = icmp ule i32 %11, 4
  br i1 %12, label %13, label %18

13:                                               ; preds = %1
  %14 = load ptr, ptr %2, align 8, !tbaa !13
  %15 = getelementptr inbounds nuw %struct.MPVMainEncContext, ptr %14, i32 0, i32 29
  store ptr @msmpeg4_encode_picture_header, ptr %15, align 8, !tbaa !106
  %16 = load ptr, ptr %3, align 8, !tbaa !11
  %17 = getelementptr inbounds nuw %struct.MPVEncContext, ptr %16, i32 0, i32 79
  store ptr @msmpeg4_encode_mb, ptr %17, align 8, !tbaa !107
  br label %18

18:                                               ; preds = %13, %1
  %19 = load ptr, ptr %3, align 8, !tbaa !11
  %20 = getelementptr inbounds nuw %struct.MPVEncContext, ptr %19, i32 0, i32 0
  %21 = getelementptr inbounds nuw %struct.MpegEncContext, ptr %20, i32 0, i32 131
  %22 = load i32, ptr %21, align 4, !tbaa !74
  %23 = icmp uge i32 %22, 4
  br i1 %23, label %24, label %29

24:                                               ; preds = %18
  %25 = load ptr, ptr %3, align 8, !tbaa !11
  %26 = getelementptr inbounds nuw %struct.MPVEncContext, ptr %25, i32 0, i32 37
  store i32 -255, ptr %26, align 8, !tbaa !108
  %27 = load ptr, ptr %3, align 8, !tbaa !11
  %28 = getelementptr inbounds nuw %struct.MPVEncContext, ptr %27, i32 0, i32 38
  store i32 255, ptr %28, align 4, !tbaa !109
  br label %29

29:                                               ; preds = %24, %18
  %30 = call i32 @pthread_once(ptr noundef @ff_msmpeg4_encode_init.init_static_once, ptr noundef @msmpeg4_encode_init_static)
  call void @llvm.lifetime.end.p0(i64 8, ptr %3) #8
  ret void
}