; Function Attrs: cold nounwind optsize uwtable
define void @ff_msmpeg4_encode_init(ptr noundef %0) local_unnamed_addr #4 {
  tail call void @ff_msmpeg4_common_init(ptr noundef %0) #9
  %2 = getelementptr inbounds nuw i8, ptr %0, i64 4148
  %3 = load i32, ptr %2, align 4, !tbaa !73
  %4 = icmp ult i32 %3, 5
  br i1 %4, label %5, label %.thread

5:                                                ; preds = %1
  %6 = getelementptr inbounds nuw i8, ptr %0, i64 7520
  store ptr @msmpeg4_encode_picture_header, ptr %6, align 8, !tbaa !100
  %7 = getelementptr inbounds nuw i8, ptr %0, i64 6888
  store ptr @msmpeg4_encode_mb, ptr %7, align 8, !tbaa !101
  %8 = icmp eq i32 %3, 4
  br i1 %8, label %.thread, label %11

.thread:                                          ; preds = %1, %5
  %9 = getelementptr inbounds nuw i8, ptr %0, i64 6536
  store i32 -255, ptr %9, align 8, !tbaa !102
  %10 = getelementptr inbounds nuw i8, ptr %0, i64 6540
  store i32 255, ptr %10, align 4, !tbaa !103
  br label %11

11:                                               ; preds = %.thread, %5
  %12 = tail call i32 @pthread_once(ptr noundef nonnull @ff_msmpeg4_encode_init.init_static_once, ptr noundef nonnull @msmpeg4_encode_init_static) #9
  ret void
}